; Function Attrs: nounwind uwtable
define ptr @pmix_dstor_new_tma(i32 noundef %0, ptr noundef %1) local_unnamed_addr #0 {
  %.not.i = icmp eq ptr %1, null
  br i1 %.not.i, label %6, label %3

3:                                                ; preds = %2
  %4 = load ptr, ptr %1, align 8, !tbaa !196
  %5 = tail call ptr %4(ptr noundef nonnull %1, i64 noundef 16) #15
  br label %pmix_tma_malloc.exit

6:                                                ; preds = %2
  %7 = tail call noalias dereferenceable_or_null(16) ptr @malloc(i64 noundef 16) #19
  br label %pmix_tma_malloc.exit

pmix_tma_malloc.exit:                             ; preds = %3, %6
  %.0.i = phi ptr [ %5, %3 ], [ %7, %6 ]
  %.not = icmp eq ptr %.0.i, null
  br i1 %.not, label %11, label %8, !prof !197

8:                                                ; preds = %pmix_tma_malloc.exit
  store i32 %0, ptr %.0.i, align 8, !tbaa !198
  %9 = getelementptr inbounds nuw i8, ptr %.0.i, i64 4
  store i32 -1, ptr %9, align 4, !tbaa !200
  %10 = getelementptr inbounds nuw i8, ptr %.0.i, i64 8
  store ptr null, ptr %10, align 8, !tbaa !201
  br label %11

11:                                               ; preds = %8, %pmix_tma_malloc.exit
  ret ptr %.0.i
}